target datalayout = "e-m:e-p270:32:32-p271:32:32-p272:64:64-i64:64-i128:128-f80:128-n8:16:32:64-S128"
target triple = "x86_64-unknown-linux-gnu"

%struct.UStringSearch = type { ptr, %struct.UPattern, ptr, ptr, ptr, ptr, ptr, i8, i32, i32, i32, i8 }
%struct.UPattern = type { ptr, i32, i32, ptr, [256 x i32], i32, ptr, [256 x i64], i8, i8 }

; Function Attrs: mustprogress nounwind uwtable
define internal noundef signext i8 @_ZL9U_FAILURE10UErrorCode(i32 noundef %code) #1 {
entry:
  %code.addr = alloca i32, align 4
  store i32 %code, ptr %code.addr, align 4
  %0 = load i32, ptr %code.addr, align 4
  %cmp = icmp sgt i32 %0, 0
  %conv = zext i1 %cmp to i8
  ret i8 %conv
}

; Function Attrs: mustprogress uwtable
define ptr @usearch_open_75(ptr noundef %pattern, i32 noundef %patternlength, ptr noundef %text, i32 noundef %textlength, ptr noundef %locale, ptr noundef %breakiter, ptr noundef %status) #0 {
entry:
  %retval = alloca ptr, align 8
  %pattern.addr = alloca ptr, align 8
  %patternlength.addr = alloca i32, align 4
  %text.addr = alloca ptr, align 8
  %textlength.addr = alloca i32, align 4
  %locale.addr = alloca ptr, align 8
  %breakiter.addr = alloca ptr, align 8
  %status.addr = alloca ptr, align 8
  %collator = alloca ptr, align 8
  %result = alloca ptr, align 8
  store ptr %pattern, ptr %pattern.addr, align 8
  store i32 %patternlength, ptr %patternlength.addr, align 4
  store ptr %text, ptr %text.addr, align 8
  store i32 %textlength, ptr %textlength.addr, align 4
  store ptr %locale, ptr %locale.addr, align 8
  store ptr %breakiter, ptr %breakiter.addr, align 8
  store ptr %status, ptr %status.addr, align 8
  %0 = load ptr, ptr %status.addr, align 8
  %1 = load i32, ptr %0, align 4
  %call = call noundef signext i8 @_ZL9U_FAILURE10UErrorCode(i32 noundef %1)
  %tobool = icmp ne i8 %call, 0
  br i1 %tobool, label %if.then, label %if.end

if.then:                                          ; preds = %entry
  store ptr null, ptr %retval, align 8
  br label %return

if.end:                                           ; preds = %entry
  %2 = load ptr, ptr %locale.addr, align 8
  %tobool1 = icmp ne ptr %2, null
  br i1 %tobool1, label %if.then2, label %if.end12

if.then2:                                         ; preds = %if.end
  %3 = load ptr, ptr %locale.addr, align 8
  %4 = load ptr, ptr %status.addr, align 8
  %call3 = call ptr @ucol_open_75(ptr noundef %3, ptr noundef %4)
  store ptr %call3, ptr %collator, align 8
  %5 = load ptr, ptr %pattern.addr, align 8
  %6 = load i32, ptr %patternlength.addr, align 4
  %7 = load ptr, ptr %text.addr, align 8
  %8 = load i32, ptr %textlength.addr, align 4
  %9 = load ptr, ptr %collator, align 8
  %10 = load ptr, ptr %breakiter.addr, align 8
  %11 = load ptr, ptr %status.addr, align 8
  %call4 = call ptr @usearch_openFromCollator_75(ptr noundef %5, i32 noundef %6, ptr noundef %7, i32 noundef %8, ptr noundef %9, ptr noundef %10, ptr noundef %11)
  store ptr %call4, ptr %result, align 8
  %12 = load ptr, ptr %result, align 8
  %cmp = icmp eq ptr %12, null
  br i1 %cmp, label %if.then7, label %lor.lhs.false

lor.lhs.false:                                    ; preds = %if.then2
  %13 = load ptr, ptr %status.addr, align 8
  %14 = load i32, ptr %13, align 4
  %call5 = call noundef signext i8 @_ZL9U_FAILURE10UErrorCode(i32 noundef %14)
  %tobool6 = icmp ne i8 %call5, 0
  br i1 %tobool6, label %if.then7, label %if.else

if.then7:                                         ; preds = %lor.lhs.false, %if.then2
  %15 = load ptr, ptr %collator, align 8
  %tobool8 = icmp ne ptr %15, null
  br i1 %tobool8, label %if.then9, label %if.end10

if.then9:                                         ; preds = %if.then7
  %16 = load ptr, ptr %collator, align 8
  call void @ucol_close_75(ptr noundef %16)
  br label %if.end10

if.end10:                                         ; preds = %if.then9, %if.then7
  store ptr null, ptr %retval, align 8
  br label %return

if.else:                                          ; preds = %lor.lhs.false
  %17 = load ptr, ptr %result, align 8
  %ownCollator = getelementptr inbounds %struct.UStringSearch, ptr %17, i32 0, i32 7
  store i8 1, ptr %ownCollator, align 8
  br label %if.end11

if.end11:                                         ; preds = %if.else
  %18 = load ptr, ptr %result, align 8
  store ptr %18, ptr %retval, align 8
  br label %return

if.end12:                                         ; preds = %if.end
  %19 = load ptr, ptr %status.addr, align 8
  store i32 1, ptr %19, align 4
  store ptr null, ptr %retval, align 8
  br label %return

return:                                           ; preds = %if.end12, %if.end11, %if.end10, %if.then
  %20 = load ptr, ptr %retval, align 8
  ret ptr %20
}