; Function Attrs: mustprogress uwtable
define noundef ptr @usearch_open_75(ptr noundef %pattern, i32 noundef %patternlength, ptr noundef %text, i32 noundef %textlength, ptr noundef %locale, ptr noundef %breakiter, ptr noundef %status) local_unnamed_addr #0 {
entry:
  %0 = load i32, ptr %status, align 4
  %cmp.i = icmp slt i32 %0, 1
  br i1 %cmp.i, label %if.end, label %return

if.end:                                           ; preds = %entry
  %tobool1.not = icmp eq ptr %locale, null
  br i1 %tobool1.not, label %if.end12, label %if.then2

if.then2:                                         ; preds = %if.end
  %call3 = tail call ptr @ucol_open_75(ptr noundef nonnull %locale, ptr noundef nonnull %status)
  %call4 = tail call ptr @usearch_openFromCollator_75(ptr noundef %pattern, i32 noundef %patternlength, ptr noundef %text, i32 noundef %textlength, ptr noundef %call3, ptr noundef %breakiter, ptr noundef nonnull %status)
  %cmp = icmp eq ptr %call4, null
  br i1 %cmp, label %if.then7, label %lor.lhs.false

lor.lhs.false:                                    ; preds = %if.then2
  %1 = load i32, ptr %status, align 4
  %cmp.i10 = icmp slt i32 %1, 1
  br i1 %cmp.i10, label %if.else, label %if.then7

if.then7:                                         ; preds = %lor.lhs.false, %if.then2
  %tobool8.not = icmp eq ptr %call3, null
  br i1 %tobool8.not, label %return, label %if.then9

if.then9:                                         ; preds = %if.then7
  tail call void @ucol_close_75(ptr noundef nonnull %call3)
  br label %return

if.else:                                          ; preds = %lor.lhs.false
  %ownCollator = getelementptr inbounds i8, ptr %call4, i64 3168
  store i8 1, ptr %ownCollator, align 8
  br label %return

if.end12:                                         ; preds = %if.end
  store i32 1, ptr %status, align 4
  br label %return

return:                                           ; preds = %if.then7, %if.then9, %entry, %if.end12, %if.else
  %retval.0 = phi ptr [ %call4, %if.else ], [ null, %if.end12 ], [ null, %entry ], [ null, %if.then9 ], [ null, %if.then7 ]
  ret ptr %retval.0
}